; ModuleID = '47/4479.c'
source_filename = "47/4479.c"
target datalayout = "e-m:e-p270:32:32-p271:32:32-p272:64:64-i64:64-f80:128-n8:16:32:64-S128"
target triple = "x86_64-pc-linux-gnu"

@.str = private unnamed_addr constant [3 x i8] c"%d\00", align 1
@.str.1 = private unnamed_addr constant [4 x i8] c"%d \00", align 1

; Function Attrs: noinline nounwind uwtable
define dso_local void @main() #0 {
  %1 = alloca i32, align 4
  %2 = alloca i32, align 4
  %3 = alloca i32, align 4
  %4 = alloca [100 x i32], align 16
  %5 = alloca i32*, align 8
  %6 = alloca i32*, align 8
  %7 = alloca i32*, align 8
  %8 = call i32 (i8*, ...) @__isoc99_scanf(i8* getelementptr inbounds ([3 x i8], [3 x i8]* @.str, i64 0, i64 0), i32* %1)
  store i32 0, i32* %3, align 4
  br label %9

9:                                                ; preds = %18, %0
  %10 = load i32, i32* %3, align 4
  %11 = load i32, i32* %1, align 4
  %12 = icmp slt i32 %10, %11
  br i1 %12, label %13, label %21

13:                                               ; preds = %9
  %14 = load i32, i32* %3, align 4
  %15 = sext i32 %14 to i64
  %16 = getelementptr inbounds [100 x i32], [100 x i32]* %4, i64 0, i64 %15
  %17 = call i32 (i8*, ...) @__isoc99_scanf(i8* getelementptr inbounds ([3 x i8], [3 x i8]* @.str, i64 0, i64 0), i32* %16)
  br label %18

18:                                               ; preds = %13
  %19 = load i32, i32* %3, align 4
  %20 = add nsw i32 %19, 1
  store i32 %20, i32* %3, align 4
  br label %9

21:                                               ; preds = %9
  %22 = getelementptr inbounds [100 x i32], [100 x i32]* %4, i64 0, i64 0
  store i32* %22, i32** %5, align 8
  %23 = getelementptr inbounds [100 x i32], [100 x i32]* %4, i64 0, i64 0
  %24 = load i32, i32* %1, align 4
  %25 = sext i32 %24 to i64
  %26 = getelementptr inbounds i32, i32* %23, i64 %25
  %27 = getelementptr inbounds i32, i32* %26, i64 -1
  store i32* %27, i32** %6, align 8
  %28 = getelementptr inbounds [100 x i32], [100 x i32]* %4, i64 0, i64 0
  %29 = load i32, i32* %1, align 4
  %30 = sdiv i32 %29, 2
  %31 = sext i32 %30 to i64
  %32 = getelementptr inbounds i32, i32* %28, i64 %31
  store i32* %32, i32** %7, align 8
  %33 = getelementptr inbounds [100 x i32], [100 x i32]* %4, i64 0, i64 0
  store i32* %33, i32** %5, align 8
  br label %34

34:                                               ; preds = %46, %21
  %35 = load i32*, i32** %5, align 8
  %36 = load i32*, i32** %7, align 8
  %37 = icmp ult i32* %35, %36
  br i1 %37, label %38, label %51

38:                                               ; preds = %34
  %39 = load i32*, i32** %5, align 8
  %40 = load i32, i32* %39, align 4
  store i32 %40, i32* %2, align 4
  %41 = load i32*, i32** %6, align 8
  %42 = load i32, i32* %41, align 4
  %43 = load i32*, i32** %5, align 8
  store i32 %42, i32* %43, align 4
  %44 = load i32, i32* %2, align 4
  %45 = load i32*, i32** %6, align 8
  store i32 %44, i32* %45, align 4
  br label %46

46:                                               ; preds = %38
  %47 = load i32*, i32** %5, align 8
  %48 = getelementptr inbounds i32, i32* %47, i32 1
  store i32* %48, i32** %5, align 8
  %49 = load i32*, i32** %6, align 8
  %50 = getelementptr inbounds i32, i32* %49, i32 -1
  store i32* %50, i32** %6, align 8
  br label %34

51:                                               ; preds = %34
  store i32 0, i32* %3, align 4
  br label %52

52:                                               ; preds = %63, %51
  %53 = load i32, i32* %3, align 4
  %54 = load i32, i32* %1, align 4
  %55 = sub nsw i32 %54, 1
  %56 = icmp slt i32 %53, %55
  br i1 %56, label %57, label %66

57:                                               ; preds = %52
  %58 = load i32, i32* %3, align 4
  %59 = sext i32 %58 to i64
  %60 = getelementptr inbounds [100 x i32], [100 x i32]* %4, i64 0, i64 %59
  %61 = load i32, i32* %60, align 4
  %62 = call i32 (i8*, ...) @printf(i8* getelementptr inbounds ([4 x i8], [4 x i8]* @.str.1, i64 0, i64 0), i32 %61)
  br label %63

63:                                               ; preds = %57
  %64 = load i32, i32* %3, align 4
  %65 = add nsw i32 %64, 1
  store i32 %65, i32* %3, align 4
  br label %52

66:                                               ; preds = %52
  %67 = load i32, i32* %1, align 4
  %68 = sub nsw i32 %67, 1
  %69 = sext i32 %68 to i64
  %70 = getelementptr inbounds [100 x i32], [100 x i32]* %4, i64 0, i64 %69
  %71 = load i32, i32* %70, align 4
  %72 = call i32 (i8*, ...) @printf(i8* getelementptr inbounds ([3 x i8], [3 x i8]* @.str, i64 0, i64 0), i32 %71)
  ret void
}

declare dso_local i32 @__isoc99_scanf(i8*, ...) #1

declare dso_local i32 @printf(i8*, ...) #1


!llvm.module.flags = !{!0}
!llvm.ident = !{!1}

!0 = !{i32 1, !"wchar_size", i32 4}
!1 = !{!"clang version 10.0.0-4ubuntu1 "}
